(lp1
(lp2
cpygame
__rect_constructor
p3
(I0
I860
I10
I10
tRp4
aa(lp5
g3
(I0
I870
I10
I720
tRp6
aa(lp7
g3
(I10
I880
I10
I10
tRp8
aa(lp9
g3
(I10
I890
I10
I720
tRp10
aa(lp11
g3
(I20
I900
I10
I10
tRp12
aa(lp13
g3
(I20
I910
I10
I720
tRp14
aa(lp15
g3
(I30
I910
I10
I10
tRp16
aa(lp17
g3
(I30
I920
I10
I720
tRp18
aa(lp19
g3
(I40
I920
I10
I10
tRp20
aa(lp21
g3
(I40
I930
I10
I720
tRp22
aa(lp23
g3
(I50
I920
I10
I10
tRp24
aa(lp25
g3
(I50
I930
I10
I720
tRp26
aa(lp27
g3
(I60
I930
I10
I10
tRp28
aa(lp29
g3
(I60
I940
I10
I720
tRp30
aa(lp31
g3
(I70
I940
I10
I10
tRp32
aa(lp33
g3
(I70
I950
I10
I720
tRp34
aa(lp35
g3
(I80
I950
I10
I10
tRp36
aa(lp37
g3
(I80
I960
I10
I720
tRp38
aa(lp39
g3
(I90
I940
I10
I10
tRp40
aa(lp41
g3
(I90
I950
I10
I720
tRp42
aa(lp43
g3
(I100
I920
I10
I10
tRp44
aa(lp45
g3
(I100
I930
I10
I720
tRp46
aa(lp47
g3
(I110
I930
I10
I10
tRp48
aa(lp49
g3
(I110
I940
I10
I720
tRp50
aa(lp51
g3
(I120
I920
I10
I10
tRp52
aa(lp53
g3
(I120
I930
I10
I720
tRp54
aa(lp55
g3
(I130
I920
I10
I10
tRp56
aa(lp57
g3
(I130
I930
I10
I720
tRp58
aa(lp59
g3
(I140
I930
I10
I10
tRp60
aa(lp61
g3
(I140
I940
I10
I720
tRp62
aa(lp63
g3
(I150
I940
I10
I10
tRp64
aa(lp65
g3
(I150
I950
I10
I720
tRp66
aa(lp67
g3
(I160
I950
I10
I10
tRp68
aa(lp69
g3
(I160
I960
I10
I720
tRp70
aa(lp71
g3
(I170
I950
I10
I10
tRp72
aa(lp73
g3
(I170
I960
I10
I720
tRp74
aa(lp75
g3
(I180
I950
I10
I10
tRp76
aa(lp77
g3
(I180
I960
I10
I720
tRp78
aa(lp79
g3
(I190
I960
I10
I10
tRp80
aa(lp81
g3
(I190
I970
I10
I720
tRp82
aa(lp83
g3
(I200
I960
I10
I10
tRp84
aa(lp85
g3
(I200
I970
I10
I720
tRp86
aa(lp87
g3
(I210
I960
I10
I10
tRp88
aa(lp89
g3
(I210
I970
I10
I720
tRp90
aa(lp91
g3
(I220
I970
I10
I10
tRp92
aa(lp93
g3
(I220
I980
I10
I720
tRp94
aa(lp95
g3
(I230
I970
I10
I10
tRp96
aa(lp97
g3
(I230
I980
I10
I720
tRp98
aa(lp99
g3
(I240
I970
I10
I10
tRp100
aa(lp101
g3
(I240
I980
I10
I720
tRp102
aa(lp103
g3
(I250
I990
I10
I10
tRp104
aa(lp105
g3
(I250
I1000
I10
I720
tRp106
aa(lp107
g3
(I260
I1010
I10
I10
tRp108
aa(lp109
g3
(I260
I1020
I10
I720
tRp110
aa(lp111
g3
(I270
I1020
I10
I10
tRp112
aa(lp113
g3
(I270
I1030
I10
I720
tRp114
aa(lp115
g3
(I280
I1020
I10
I10
tRp116
aa(lp117
g3
(I280
I1030
I10
I720
tRp118
aa(lp119
g3
(I290
I1040
I10
I10
tRp120
aa(lp121
g3
(I290
I1050
I10
I720
tRp122
aa(lp123
g3
(I300
I1060
I10
I10
tRp124
aa(lp125
g3
(I300
I1070
I10
I720
tRp126
aa(lp127
g3
(I310
I1080
I10
I10
tRp128
aa(lp129
g3
(I310
I1090
I10
I720
tRp130
aa(lp131
g3
(I320
I1110
I10
I10
tRp132
aa(lp133
g3
(I320
I1120
I10
I720
tRp134
aa(lp135
g3
(I330
I1100
I10
I10
tRp136
aa(lp137
g3
(I330
I1110
I10
I720
tRp138
aa(lp139
g3
(I340
I1100
I10
I10
tRp140
aa(lp141
g3
(I340
I1110
I10
I720
tRp142
aa(lp143
g3
(I350
I1080
I10
I10
tRp144
aa(lp145
g3
(I350
I1090
I10
I720
tRp146
aa(lp147
g3
(I360
I1070
I10
I10
tRp148
aa(lp149
g3
(I360
I1080
I10
I720
tRp150
aa(lp151
g3
(I370
I1060
I10
I10
tRp152
aa(lp153
g3
(I370
I1070
I10
I720
tRp154
aa(lp155
g3
(I380
I1040
I10
I10
tRp156
aa(lp157
g3
(I380
I1050
I10
I720
tRp158
aa(lp159
g3
(I390
I1030
I10
I10
tRp160
aa(lp161
g3
(I390
I1040
I10
I720
tRp162
aa(lp163
g3
(I400
I1020
I10
I10
tRp164
aa(lp165
g3
(I400
I1030
I10
I720
tRp166
aa(lp167
g3
(I410
I1010
I10
I10
tRp168
aa(lp169
g3
(I410
I1020
I10
I720
tRp170
aa(lp171
g3
(I420
I1010
I10
I10
tRp172
aa(lp173
g3
(I420
I1020
I10
I720
tRp174
aa(lp175
g3
(I430
I1020
I10
I10
tRp176
aa(lp177
g3
(I430
I1030
I10
I720
tRp178
aa(lp179
g3
(I440
I1030
I10
I10
tRp180
aa(lp181
g3
(I440
I1040
I10
I720
tRp182
aa(lp183
g3
(I450
I1020
I10
I10
tRp184
aa(lp185
g3
(I450
I1030
I10
I720
tRp186
aa(lp187
g3
(I460
I1010
I10
I10
tRp188
aa(lp189
g3
(I460
I1020
I10
I720
tRp190
aa(lp191
g3
(I470
I1010
I10
I10
tRp192
aa(lp193
g3
(I470
I1020
I10
I720
tRp194
aa(lp195
g3
(I480
I990
I10
I10
tRp196
aa(lp197
g3
(I480
I1000
I10
I720
tRp198
aa(lp199
g3
(I490
I1000
I10
I10
tRp200
aa(lp201
g3
(I490
I1010
I10
I720
tRp202
aa(lp203
g3
(I500
I1000
I10
I10
tRp204
aa(lp205
g3
(I500
I1010
I10
I720
tRp206
aa(lp207
g3
(I510
I1000
I10
I10
tRp208
aa(lp209
g3
(I510
I1010
I10
I720
tRp210
aa(lp211
g3
(I520
I1000
I10
I10
tRp212
aa(lp213
g3
(I520
I1010
I10
I720
tRp214
aa(lp215
g3
(I530
I1000
I10
I10
tRp216
aa(lp217
g3
(I530
I1010
I10
I720
tRp218
aa(lp219
g3
(I540
I990
I10
I10
tRp220
aa(lp221
g3
(I540
I1000
I10
I720
tRp222
aa(lp223
g3
(I550
I1000
I10
I10
tRp224
aa(lp225
g3
(I550
I1010
I10
I720
tRp226
aa(lp227
g3
(I560
I990
I10
I10
tRp228
aa(lp229
g3
(I560
I1000
I10
I720
tRp230
aa(lp231
g3
(I570
I980
I10
I10
tRp232
aa(lp233
g3
(I570
I990
I10
I720
tRp234
aa(lp235
g3
(I580
I970
I10
I10
tRp236
aa(lp237
g3
(I580
I980
I10
I720
tRp238
aa(lp239
g3
(I590
I970
I10
I10
tRp240
aa(lp241
g3
(I590
I980
I10
I720
tRp242
aa(lp243
g3
(I600
I970
I10
I10
tRp244
aa(lp245
g3
(I600
I980
I10
I720
tRp246
aa(lp247
g3
(I610
I950
I10
I10
tRp248
aa(lp249
g3
(I610
I960
I10
I720
tRp250
aa(lp251
g3
(I620
I930
I10
I10
tRp252
aa(lp253
g3
(I620
I940
I10
I720
tRp254
aa(lp255
g3
(I630
I910
I10
I10
tRp256
aa(lp257
g3
(I630
I920
I10
I720
tRp258
aa(lp259
g3
(I640
I900
I10
I10
tRp260
aa(lp261
g3
(I640
I910
I10
I720
tRp262
aa(lp263
g3
(I650
I910
I10
I10
tRp264
aa(lp265
g3
(I650
I920
I10
I720
tRp266
aa(lp267
g3
(I660
I910
I10
I10
tRp268
aa(lp269
g3
(I660
I920
I10
I720
tRp270
aa(lp271
g3
(I670
I900
I10
I10
tRp272
aa(lp273
g3
(I670
I910
I10
I720
tRp274
aa(lp275
g3
(I680
I900
I10
I10
tRp276
aa(lp277
g3
(I680
I910
I10
I720
tRp278
aa(lp279
g3
(I690
I890
I10
I10
tRp280
aa(lp281
g3
(I690
I900
I10
I720
tRp282
aa(lp283
g3
(I700
I880
I10
I10
tRp284
aa(lp285
g3
(I700
I890
I10
I720
tRp286
aa(lp287
g3
(I710
I890
I10
I10
tRp288
aa(lp289
g3
(I710
I900
I10
I720
tRp290
aa(lp291
g3
(I720
I890
I10
I10
tRp292
aa(lp293
g3
(I720
I900
I10
I720
tRp294
aa(lp295
g3
(I730
I880
I10
I10
tRp296
aa(lp297
g3
(I730
I890
I10
I720
tRp298
aa(lp299
g3
(I740
I860
I10
I10
tRp300
aa(lp301
g3
(I740
I870
I10
I720
tRp302
aa(lp303
g3
(I750
I850
I10
I10
tRp304
aa(lp305
g3
(I750
I860
I10
I720
tRp306
aa(lp307
g3
(I760
I830
I10
I10
tRp308
aa(lp309
g3
(I760
I840
I10
I720
tRp310
aa(lp311
g3
(I770
I820
I10
I10
tRp312
aa(lp313
g3
(I770
I830
I10
I720
tRp314
aa(lp315
g3
(I780
I820
I10
I10
tRp316
aa(lp317
g3
(I780
I830
I10
I720
tRp318
aa(lp319
g3
(I790
I810
I10
I10
tRp320
aa(lp321
g3
(I790
I820
I10
I720
tRp322
aa(lp323
g3
(I800
I810
I10
I10
tRp324
aa(lp325
g3
(I800
I820
I10
I720
tRp326
aa(lp327
g3
(I810
I790
I10
I10
tRp328
aa(lp329
g3
(I810
I800
I10
I720
tRp330
aa(lp331
g3
(I820
I780
I10
I10
tRp332
aa(lp333
g3
(I820
I790
I10
I720
tRp334
aa(lp335
g3
(I830
I760
I10
I10
tRp336
aa(lp337
g3
(I830
I770
I10
I720
tRp338
aa(lp339
g3
(I840
I730
I10
I10
tRp340
aa(lp341
g3
(I840
I740
I10
I720
tRp342
aa(lp343
g3
(I850
I730
I10
I10
tRp344
aa(lp345
g3
(I850
I740
I10
I720
tRp346
aa(lp347
g3
(I860
I730
I10
I10
tRp348
aa(lp349
g3
(I860
I740
I10
I720
tRp350
aa(lp351
g3
(I870
I710
I10
I10
tRp352
aa(lp353
g3
(I870
I720
I10
I720
tRp354
aa(lp355
g3
(I880
I700
I10
I10
tRp356
aa(lp357
g3
(I880
I710
I10
I720
tRp358
aa(lp359
g3
(I890
I690
I10
I10
tRp360
aa(lp361
g3
(I890
I700
I10
I720
tRp362
aa(lp363
g3
(I900
I690
I10
I10
tRp364
aa(lp365
g3
(I900
I700
I10
I720
tRp366
aa(lp367
g3
(I910
I670
I10
I10
tRp368
aa(lp369
g3
(I910
I680
I10
I720
tRp370
aa(lp371
g3
(I920
I660
I10
I10
tRp372
aa(lp373
g3
(I920
I670
I10
I720
tRp374
aa(lp375
g3
(I930
I660
I10
I10
tRp376
aa(lp377
g3
(I930
I670
I10
I720
tRp378
aa(lp379
g3
(I940
I660
I10
I10
tRp380
aa(lp381
g3
(I940
I670
I10
I720
tRp382
aa(lp383
g3
(I950
I660
I10
I10
tRp384
aa(lp385
g3
(I950
I670
I10
I720
tRp386
aa(lp387
g3
(I960
I650
I10
I10
tRp388
aa(lp389
g3
(I960
I660
I10
I720
tRp390
aa(lp391
g3
(I970
I650
I10
I10
tRp392
aa(lp393
g3
(I970
I660
I10
I720
tRp394
aa(lp395
g3
(I980
I640
I10
I10
tRp396
aa(lp397
g3
(I980
I650
I10
I720
tRp398
aa(lp399
g3
(I990
I620
I10
I10
tRp400
aa(lp401
g3
(I990
I630
I10
I720
tRp402
aa(lp403
g3
(I1000
I620
I10
I10
tRp404
aa(lp405
g3
(I1000
I630
I10
I720
tRp406
aa(lp407
g3
(I1010
I620
I10
I10
tRp408
aa(lp409
g3
(I1010
I630
I10
I720
tRp410
aa(lp411
g3
(I1020
I610
I10
I10
tRp412
aa(lp413
g3
(I1020
I620
I10
I720
tRp414
aa(lp415
g3
(I1030
I610
I10
I10
tRp416
aa(lp417
g3
(I1030
I620
I10
I720
tRp418
aa(lp419
g3
(I1040
I610
I10
I10
tRp420
aa(lp421
g3
(I1040
I620
I10
I720
tRp422
aa(lp423
g3
(I1050
I610
I10
I10
tRp424
aa(lp425
g3
(I1050
I620
I10
I720
tRp426
aa(lp427
g3
(I1060
I620
I10
I10
tRp428
aa(lp429
g3
(I1060
I630
I10
I720
tRp430
aa(lp431
g3
(I1070
I630
I10
I10
tRp432
aa(lp433
g3
(I1070
I640
I10
I720
tRp434
aa(lp435
g3
(I1080
I640
I10
I10
tRp436
aa(lp437
g3
(I1080
I650
I10
I720
tRp438
aa(lp439
g3
(I1090
I670
I10
I10
tRp440
aa(lp441
g3
(I1090
I680
I10
I720
tRp442
aa(lp443
g3
(I1100
I690
I10
I10
tRp444
aa(lp445
g3
(I1100
I700
I10
I720
tRp446
aa(lp447
g3
(I1110
I690
I10
I10
tRp448
aa(lp449
g3
(I1110
I700
I10
I720
tRp450
aa(lp451
g3
(I1120
I700
I10
I10
tRp452
aa(lp453
g3
(I1120
I710
I10
I720
tRp454
aa(lp455
g3
(I1130
I720
I10
I10
tRp456
aa(lp457
g3
(I1130
I730
I10
I720
tRp458
aa(lp459
g3
(I1140
I750
I10
I10
tRp460
aa(lp461
g3
(I1140
I760
I10
I720
tRp462
aa(lp463
g3
(I1150
I770
I10
I10
tRp464
aa(lp465
g3
(I1150
I780
I10
I720
tRp466
aa(lp467
g3
(I1160
I800
I10
I10
tRp468
aa(lp469
g3
(I1160
I810
I10
I720
tRp470
aa(lp471
g3
(I1170
I820
I10
I10
tRp472
aa(lp473
g3
(I1170
I830
I10
I720
tRp474
aa(lp475
g3
(I1180
I830
I10
I10
tRp476
aa(lp477
g3
(I1180
I840
I10
I720
tRp478
aa(lp479
g3
(I1190
I840
I10
I10
tRp480
aa(lp481
g3
(I1190
I850
I10
I720
tRp482
aa(lp483
g3
(I1200
I840
I10
I10
tRp484
aa(lp485
g3
(I1200
I850
I10
I720
tRp486
aa(lp487
g3
(I1210
I840
I10
I10
tRp488
aa(lp489
g3
(I1210
I850
I10
I720
tRp490
aa(lp491
g3
(I1220
I840
I10
I10
tRp492
aa(lp493
g3
(I1220
I850
I10
I720
tRp494
aa(lp495
g3
(I1230
I840
I10
I10
tRp496
aa(lp497
g3
(I1230
I850
I10
I720
tRp498
aa(lp499
g3
(I1240
I830
I10
I10
tRp500
aa(lp501
g3
(I1240
I840
I10
I720
tRp502
aa(lp503
g3
(I1250
I840
I10
I10
tRp504
aa(lp505
g3
(I1250
I850
I10
I720
tRp506
aa(lp507
g3
(I1260
I850
I10
I10
tRp508
aa(lp509
g3
(I1260
I860
I10
I720
tRp510
aa(lp511
g3
(I1270
I860
I10
I10
tRp512
aa(lp513
g3
(I1270
I870
I10
I720
tRp514
aa(lp515
g3
(I1280
I860
I10
I10
tRp516
aa(lp517
g3
(I1280
I870
I10
I720
tRp518
aa.